target datalayout = "e-m:e-p270:32:32-p271:32:32-p272:64:64-i64:64-i128:128-f80:128-n8:16:32:64-S128"
target triple = "x86_64-pc-linux-gnu"

; Function Attrs: nounwind uwtable
define internal void @pred8x8l_128_dc_8_c(ptr noundef %0, i32 noundef %1, i32 noundef %2, i64 noundef %3) #1 {
  %5 = alloca ptr, align 8
  %6 = alloca i32, align 4
  %7 = alloca i32, align 4
  %8 = alloca i64, align 8
  %9 = alloca ptr, align 8
  %10 = alloca i32, align 4
  %11 = alloca i32, align 4
  store ptr %0, ptr %5, align 8, !tbaa !12
  store i32 %1, ptr %6, align 4, !tbaa !9
  store i32 %2, ptr %7, align 4, !tbaa !9
  store i64 %3, ptr %8, align 8, !tbaa !14
  call void @llvm.lifetime.start.p0(i64 8, ptr %9) #9
  %12 = load ptr, ptr %5, align 8, !tbaa !12
  store ptr %12, ptr %9, align 8, !tbaa !12
  call void @llvm.lifetime.start.p0(i64 4, ptr %10) #9
  %13 = load i64, ptr %8, align 8, !tbaa !14
  %14 = ashr i64 %13, 0
  %15 = trunc i64 %14 to i32
  store i32 %15, ptr %10, align 4, !tbaa !9
  call void @llvm.lifetime.start.p0(i64 4, ptr %11) #9
  store i32 0, ptr %11, align 4, !tbaa !9
  br label %16

16:                                               ; preds = %28, %4
  %17 = load i32, ptr %11, align 4, !tbaa !9
  %18 = icmp slt i32 %17, 8
  br i1 %18, label %19, label %31

19:                                               ; preds = %16
  %20 = load ptr, ptr %9, align 8, !tbaa !12
  %21 = getelementptr inbounds i32, ptr %20, i64 0
  store i32 -2139062144, ptr %21, align 4, !tbaa !18
  %22 = load ptr, ptr %9, align 8, !tbaa !12
  %23 = getelementptr inbounds i32, ptr %22, i64 1
  store i32 -2139062144, ptr %23, align 4, !tbaa !18
  %24 = load i32, ptr %10, align 4, !tbaa !9
  %25 = load ptr, ptr %9, align 8, !tbaa !12
  %26 = sext i32 %24 to i64
  %27 = getelementptr inbounds i8, ptr %25, i64 %26
  store ptr %27, ptr %9, align 8, !tbaa !12
  br label %28

28:                                               ; preds = %19
  %29 = load i32, ptr %11, align 4, !tbaa !9
  %30 = add nsw i32 %29, 1
  store i32 %30, ptr %11, align 4, !tbaa !9
  br label %16, !llvm.loop !248

31:                                               ; preds = %16
  call void @llvm.lifetime.end.p0(i64 4, ptr %11) #9
  call void @llvm.lifetime.end.p0(i64 4, ptr %10) #9
  call void @llvm.lifetime.end.p0(i64 8, ptr %9) #9
  ret void
}