; Function Attrs: nofree norecurse nosync nounwind memory(argmem: write) uwtable
define internal void @pred8x8l_128_dc_8_c(ptr noundef writeonly captures(none) %0, i32 %1, i32 %2, i64 noundef %3) #4 {
  %sext = shl i64 %3, 32
  %5 = ashr exact i64 %sext, 32
  br label %6

6:                                                ; preds = %4, %6
  %.09 = phi i32 [ 0, %4 ], [ %9, %6 ]
  %.078 = phi ptr [ %0, %4 ], [ %8, %6 ]
  store i32 -2139062144, ptr %.078, align 4, !tbaa !8
  %7 = getelementptr inbounds nuw i8, ptr %.078, i64 4
  store i32 -2139062144, ptr %7, align 4, !tbaa !8
  %8 = getelementptr inbounds i8, ptr %.078, i64 %5
  %9 = add nuw nsw i32 %.09, 1
  %exitcond.not = icmp eq i32 %9, 8
  br i1 %exitcond.not, label %10, label %6, !llvm.loop !250

10:                                               ; preds = %6
  ret void
}